target datalayout = "e-m:e-p270:32:32-p271:32:32-p272:64:64-i64:64-i128:128-f80:128-n8:16:32:64-S128"
target triple = "x86_64-pc-linux-gnu"

%struct._php_stream_bucket = type { ptr, ptr, ptr, ptr, i64, i8, i8, i32 }
%struct._php_stream_bucket_brigade = type { ptr, ptr }

; Function Attrs: nounwind uwtable
define void @php_stream_bucket_append(ptr noundef %0, ptr noundef %1) #0 {
  %3 = alloca ptr, align 8
  %4 = alloca ptr, align 8
  store ptr %0, ptr %3, align 8
  store ptr %1, ptr %4, align 8
  %5 = load ptr, ptr %3, align 8
  %6 = getelementptr inbounds %struct._php_stream_bucket_brigade, ptr %5, i32 0, i32 1
  %7 = load ptr, ptr %6, align 8
  %8 = load ptr, ptr %4, align 8
  %9 = icmp eq ptr %7, %8
  br i1 %9, label %10, label %11

10:                                               ; preds = %2
  br label %40

11:                                               ; preds = %2
  %12 = load ptr, ptr %3, align 8
  %13 = getelementptr inbounds %struct._php_stream_bucket_brigade, ptr %12, i32 0, i32 1
  %14 = load ptr, ptr %13, align 8
  %15 = load ptr, ptr %4, align 8
  %16 = getelementptr inbounds %struct._php_stream_bucket, ptr %15, i32 0, i32 1
  store ptr %14, ptr %16, align 8
  %17 = load ptr, ptr %4, align 8
  %18 = getelementptr inbounds %struct._php_stream_bucket, ptr %17, i32 0, i32 0
  store ptr null, ptr %18, align 8
  %19 = load ptr, ptr %3, align 8
  %20 = getelementptr inbounds %struct._php_stream_bucket_brigade, ptr %19, i32 0, i32 1
  %21 = load ptr, ptr %20, align 8
  %22 = icmp ne ptr %21, null
  br i1 %22, label %23, label %29

23:                                               ; preds = %11
  %24 = load ptr, ptr %4, align 8
  %25 = load ptr, ptr %3, align 8
  %26 = getelementptr inbounds %struct._php_stream_bucket_brigade, ptr %25, i32 0, i32 1
  %27 = load ptr, ptr %26, align 8
  %28 = getelementptr inbounds %struct._php_stream_bucket, ptr %27, i32 0, i32 0
  store ptr %24, ptr %28, align 8
  br label %33

29:                                               ; preds = %11
  %30 = load ptr, ptr %4, align 8
  %31 = load ptr, ptr %3, align 8
  %32 = getelementptr inbounds %struct._php_stream_bucket_brigade, ptr %31, i32 0, i32 0
  store ptr %30, ptr %32, align 8
  br label %33

33:                                               ; preds = %29, %23
  %34 = load ptr, ptr %4, align 8
  %35 = load ptr, ptr %3, align 8
  %36 = getelementptr inbounds %struct._php_stream_bucket_brigade, ptr %35, i32 0, i32 1
  store ptr %34, ptr %36, align 8
  %37 = load ptr, ptr %3, align 8
  %38 = load ptr, ptr %4, align 8
  %39 = getelementptr inbounds %struct._php_stream_bucket, ptr %38, i32 0, i32 2
  store ptr %37, ptr %39, align 8
  br label %40

40:                                               ; preds = %33, %10
  ret void
}