; Function Attrs: mustprogress nofree norecurse nosync nounwind willreturn memory(write, argmem: readwrite, inaccessiblemem: none) uwtable
define void @php_stream_bucket_append(ptr noundef %0, ptr noundef %1) local_unnamed_addr #7 {
  %3 = getelementptr inbounds i8, ptr %0, i64 8
  %4 = load ptr, ptr %3, align 8
  %5 = icmp eq ptr %4, %1
  br i1 %5, label %10, label %6

6:                                                ; preds = %2
  %7 = getelementptr inbounds i8, ptr %1, i64 8
  store ptr %4, ptr %7, align 8
  store ptr null, ptr %1, align 8
  %8 = load ptr, ptr %3, align 8
  %.not = icmp eq ptr %8, null
  %. = select i1 %.not, ptr %0, ptr %8
  store ptr %1, ptr %., align 8
  store ptr %1, ptr %3, align 8
  %9 = getelementptr inbounds i8, ptr %1, i64 16
  store ptr %0, ptr %9, align 8
  br label %10

10:                                               ; preds = %2, %6
  ret void
}